; ModuleID = '56/2775.c'
source_filename = "56/2775.c"
target datalayout = "e-m:e-p270:32:32-p271:32:32-p272:64:64-i64:64-f80:128-n8:16:32:64-S128"
target triple = "x86_64-pc-linux-gnu"

@a = common dso_local global [6 x i8] zeroinitializer, align 1
@i = common dso_local global i32 0, align 4
@j = common dso_local global i32 0, align 4

; Function Attrs: noinline nounwind uwtable
define dso_local void @replace(i32 %0, i32 %1) #0 {
  %3 = alloca i32, align 4
  %4 = alloca i32, align 4
  %5 = alloca i32, align 4
  store i32 %0, i32* %3, align 4
  store i32 %1, i32* %4, align 4
  %6 = load i32, i32* %3, align 4
  %7 = load i32, i32* %4, align 4
  %8 = icmp slt i32 %6, %7
  br i1 %8, label %9, label %31

9:                                                ; preds = %2
  %10 = load i32, i32* %3, align 4
  %11 = sext i32 %10 to i64
  %12 = getelementptr inbounds [6 x i8], [6 x i8]* @a, i64 0, i64 %11
  %13 = load i8, i8* %12, align 1
  %14 = sext i8 %13 to i32
  store i32 %14, i32* %5, align 4
  %15 = load i32, i32* %4, align 4
  %16 = sext i32 %15 to i64
  %17 = getelementptr inbounds [6 x i8], [6 x i8]* @a, i64 0, i64 %16
  %18 = load i8, i8* %17, align 1
  %19 = load i32, i32* %3, align 4
  %20 = sext i32 %19 to i64
  %21 = getelementptr inbounds [6 x i8], [6 x i8]* @a, i64 0, i64 %20
  store i8 %18, i8* %21, align 1
  %22 = load i32, i32* %5, align 4
  %23 = trunc i32 %22 to i8
  %24 = load i32, i32* %4, align 4
  %25 = sext i32 %24 to i64
  %26 = getelementptr inbounds [6 x i8], [6 x i8]* @a, i64 0, i64 %25
  store i8 %23, i8* %26, align 1
  %27 = load i32, i32* %3, align 4
  %28 = add nsw i32 %27, 1
  %29 = load i32, i32* %4, align 4
  %30 = sub nsw i32 %29, 1
  call void @replace(i32 %28, i32 %30)
  br label %32

31:                                               ; preds = %2
  br label %32

32:                                               ; preds = %31, %9
  ret void
}

; Function Attrs: noinline nounwind uwtable
define dso_local void @main() #0 {
  %1 = call i32 (i8*, ...) bitcast (i32 (...)* @gets to i32 (i8*, ...)*)(i8* getelementptr inbounds ([6 x i8], [6 x i8]* @a, i64 0, i64 0))
  %2 = call i64 @strlen(i8* getelementptr inbounds ([6 x i8], [6 x i8]* @a, i64 0, i64 0)) #3
  %3 = sub i64 %2, 1
  %4 = trunc i64 %3 to i32
  call void @replace(i32 0, i32 %4)
  %5 = call i32 @puts(i8* getelementptr inbounds ([6 x i8], [6 x i8]* @a, i64 0, i64 0))
  ret void
}

declare dso_local i32 @gets(...) #1

; Function Attrs: nounwind readonly
declare dso_local i64 @strlen(i8*) #2

declare dso_local i32 @puts(i8*) #1


!llvm.module.flags = !{!0}
!llvm.ident = !{!1}

!0 = !{i32 1, !"wchar_size", i32 4}
!1 = !{!"clang version 10.0.0-4ubuntu1 "}
